; Function Attrs: nounwind uwtable
define hidden void @ssl_set_read_state(ptr noundef readonly captures(none) %0, ptr noundef %1) local_unnamed_addr #0 {
  %3 = getelementptr inbounds nuw i8, ptr %0, i64 8
  %4 = load ptr, ptr %3, align 8, !tbaa !11
  %5 = load i8, ptr %4, align 8, !tbaa !38
  %.not = icmp eq i8 %5, 0
  br i1 %.not, label %13, label %6

6:                                                ; preds = %2
  %7 = getelementptr inbounds nuw i8, ptr %0, i64 88
  %8 = load ptr, ptr %7, align 8, !tbaa !68
  %9 = getelementptr inbounds nuw i8, ptr %8, i64 272
  %10 = load i16, ptr %9, align 8, !tbaa !69
  %11 = add i16 %10, 1
  store i16 %11, ptr %9, align 8, !tbaa !69
  %12 = getelementptr inbounds nuw i8, ptr %8, i64 280
  tail call void @llvm.memset.p0.i64(ptr noundef nonnull align 8 dereferenceable(16) %12, i8 0, i64 16, i1 false)
  br label %13

13:                                               ; preds = %6, %2
  %14 = getelementptr inbounds nuw i8, ptr %0, i64 80
  %15 = load ptr, ptr %14, align 8, !tbaa !40
  store i64 0, ptr %15, align 8
  %16 = load ptr, ptr %14, align 8, !tbaa !40
  %17 = getelementptr inbounds nuw i8, ptr %16, i64 264
  %18 = load ptr, ptr %17, align 8, !tbaa !41
  tail call void @SSL_AEAD_CTX_free(ptr noundef %18) #4
  %19 = load ptr, ptr %14, align 8, !tbaa !40
  %20 = getelementptr inbounds nuw i8, ptr %19, i64 264
  store ptr %1, ptr %20, align 8, !tbaa !41
  ret void
}